target datalayout = "e-m:e-p270:32:32-p271:32:32-p272:64:64-i64:64-i128:128-f80:128-n8:16:32:64-S128"
target triple = "x86_64-pc-linux-gnu"

%struct.buf_chunk = type { ptr, i64, i64, i64, %union.anon }
%union.anon = type { ptr }
%struct.bufq = type { ptr, ptr, ptr, ptr, i64, i64, i64, i32 }

; Function Attrs: nounwind uwtable
define internal i64 @chunk_append(ptr noundef %0, ptr noundef %1, i64 noundef %2) #0 {
  %4 = alloca ptr, align 8
  %5 = alloca ptr, align 8
  %6 = alloca i64, align 8
  %7 = alloca ptr, align 8
  %8 = alloca i64, align 8
  store ptr %0, ptr %4, align 8
  store ptr %1, ptr %5, align 8
  store i64 %2, ptr %6, align 8
  %9 = load ptr, ptr %4, align 8
  %10 = getelementptr inbounds %struct.buf_chunk, ptr %9, i32 0, i32 4
  %11 = load ptr, ptr %4, align 8
  %12 = getelementptr inbounds %struct.buf_chunk, ptr %11, i32 0, i32 3
  %13 = load i64, ptr %12, align 8
  %14 = getelementptr inbounds [1 x i8], ptr %10, i64 0, i64 %13
  store ptr %14, ptr %7, align 8
  %15 = load ptr, ptr %4, align 8
  %16 = getelementptr inbounds %struct.buf_chunk, ptr %15, i32 0, i32 1
  %17 = load i64, ptr %16, align 8
  %18 = load ptr, ptr %4, align 8
  %19 = getelementptr inbounds %struct.buf_chunk, ptr %18, i32 0, i32 3
  %20 = load i64, ptr %19, align 8
  %21 = sub i64 %17, %20
  store i64 %21, ptr %8, align 8
  br label %22

22:                                               ; preds = %3
  br label %23

23:                                               ; preds = %22
  %24 = load i64, ptr %8, align 8
  %25 = icmp ne i64 %24, 0
  br i1 %25, label %26, label %44

26:                                               ; preds = %23
  %27 = load i64, ptr %8, align 8
  %28 = load i64, ptr %6, align 8
  %29 = icmp ult i64 %27, %28
  br i1 %29, label %30, label %32

30:                                               ; preds = %26
  %31 = load i64, ptr %8, align 8
  br label %34

32:                                               ; preds = %26
  %33 = load i64, ptr %6, align 8
  br label %34

34:                                               ; preds = %32, %30
  %35 = phi i64 [ %31, %30 ], [ %33, %32 ]
  store i64 %35, ptr %8, align 8
  %36 = load ptr, ptr %7, align 8
  %37 = load ptr, ptr %5, align 8
  %38 = load i64, ptr %8, align 8
  call void @llvm.memcpy.p0.p0.i64(ptr align 1 %36, ptr align 1 %37, i64 %38, i1 false)
  %39 = load i64, ptr %8, align 8
  %40 = load ptr, ptr %4, align 8
  %41 = getelementptr inbounds %struct.buf_chunk, ptr %40, i32 0, i32 3
  %42 = load i64, ptr %41, align 8
  %43 = add i64 %42, %39
  store i64 %43, ptr %41, align 8
  br label %44

44:                                               ; preds = %34, %23
  %45 = load i64, ptr %8, align 8
  ret i64 %45
}

; Function Attrs: nounwind uwtable
define dso_local i64 @Curl_bufq_write(ptr noundef %0, ptr noundef %1, i64 noundef %2, ptr noundef %3) #0 {
  %5 = alloca i64, align 8
  %6 = alloca ptr, align 8
  %7 = alloca ptr, align 8
  %8 = alloca i64, align 8
  %9 = alloca ptr, align 8
  %10 = alloca ptr, align 8
  %11 = alloca i64, align 8
  %12 = alloca i64, align 8
  store ptr %0, ptr %6, align 8
  store ptr %1, ptr %7, align 8
  store i64 %2, ptr %8, align 8
  store ptr %3, ptr %9, align 8
  store i64 0, ptr %11, align 8
  br label %13

13:                                               ; preds = %4
  br label %14

14:                                               ; preds = %13
  br label %15

15:                                               ; preds = %42, %14
  %16 = load i64, ptr %8, align 8
  %17 = icmp ne i64 %16, 0
  br i1 %17, label %18, label %52

18:                                               ; preds = %15
  %19 = load ptr, ptr %6, align 8
  %20 = call ptr @get_non_full_tail(ptr noundef %19)
  store ptr %20, ptr %10, align 8
  %21 = load ptr, ptr %10, align 8
  %22 = icmp ne ptr %21, null
  br i1 %22, label %34, label %23

23:                                               ; preds = %18
  %24 = load ptr, ptr %6, align 8
  %25 = getelementptr inbounds %struct.bufq, ptr %24, i32 0, i32 4
  %26 = load i64, ptr %25, align 8
  %27 = load ptr, ptr %6, align 8
  %28 = getelementptr inbounds %struct.bufq, ptr %27, i32 0, i32 5
  %29 = load i64, ptr %28, align 8
  %30 = icmp ult i64 %26, %29
  br i1 %30, label %31, label %33

31:                                               ; preds = %23
  %32 = load ptr, ptr %9, align 8
  store i32 27, ptr %32, align 4
  store i64 -1, ptr %5, align 8
  br label %63

33:                                               ; preds = %23
  br label %52

34:                                               ; preds = %18
  %35 = load ptr, ptr %10, align 8
  %36 = load ptr, ptr %7, align 8
  %37 = load i64, ptr %8, align 8
  %38 = call i64 @chunk_append(ptr noundef %35, ptr noundef %36, i64 noundef %37)
  store i64 %38, ptr %12, align 8
  %39 = load i64, ptr %12, align 8
  %40 = icmp ne i64 %39, 0
  br i1 %40, label %42, label %41

41:                                               ; preds = %34
  br label %52

42:                                               ; preds = %34
  %43 = load i64, ptr %12, align 8
  %44 = load i64, ptr %11, align 8
  %45 = add i64 %44, %43
  store i64 %45, ptr %11, align 8
  %46 = load i64, ptr %12, align 8
  %47 = load ptr, ptr %7, align 8
  %48 = getelementptr inbounds i8, ptr %47, i64 %46
  store ptr %48, ptr %7, align 8
  %49 = load i64, ptr %12, align 8
  %50 = load i64, ptr %8, align 8
  %51 = sub i64 %50, %49
  store i64 %51, ptr %8, align 8
  br label %15, !llvm.loop !10

52:                                               ; preds = %41, %33, %15
  %53 = load i64, ptr %11, align 8
  %54 = icmp eq i64 %53, 0
  br i1 %54, label %55, label %60

55:                                               ; preds = %52
  %56 = load i64, ptr %8, align 8
  %57 = icmp ne i64 %56, 0
  br i1 %57, label %58, label %60

58:                                               ; preds = %55
  %59 = load ptr, ptr %9, align 8
  store i32 81, ptr %59, align 4
  store i64 -1, ptr %5, align 8
  br label %63

60:                                               ; preds = %55, %52
  %61 = load ptr, ptr %9, align 8
  store i32 0, ptr %61, align 4
  %62 = load i64, ptr %11, align 8
  store i64 %62, ptr %5, align 8
  br label %63

63:                                               ; preds = %60, %58, %31
  %64 = load i64, ptr %5, align 8
  ret i64 %64
}