; Function Attrs: nounwind uwtable
define dso_local i64 @Curl_bufq_write(ptr noundef captures(none) %0, ptr noundef readonly captures(none) %1, i64 noundef %2, ptr noundef writeonly captures(none) %3) local_unnamed_addr #2 {
  %.not3136 = icmp eq i64 %2, 0
  br i1 %.not3136, label %.thread, label %.lr.ph

.lr.ph:                                           ; preds = %4, %chunk_append.exit
  %.02239 = phi i64 [ %23, %chunk_append.exit ], [ 0, %4 ]
  %.02338 = phi ptr [ %24, %chunk_append.exit ], [ %1, %4 ]
  %.02437 = phi i64 [ %25, %chunk_append.exit ], [ %2, %4 ]
  %5 = tail call fastcc ptr @get_non_full_tail(ptr noundef %0)
  %.not = icmp eq ptr %5, null
  br i1 %.not, label %6, label %12

6:                                                ; preds = %.lr.ph
  %7 = getelementptr inbounds nuw i8, ptr %0, i64 32
  %8 = load i64, ptr %7, align 8
  %9 = getelementptr inbounds nuw i8, ptr %0, i64 40
  %10 = load i64, ptr %9, align 8
  %11 = icmp ult i64 %8, %10
  br i1 %11, label %.thread, label %chunk_append.exit.thread

12:                                               ; preds = %.lr.ph
  %13 = getelementptr inbounds nuw i8, ptr %5, i64 24
  %14 = load i64, ptr %13, align 8
  %15 = getelementptr inbounds nuw i8, ptr %5, i64 8
  %16 = load i64, ptr %15, align 8
  %.not.i = icmp eq i64 %16, %14
  br i1 %.not.i, label %chunk_append.exit.thread, label %chunk_append.exit

chunk_append.exit:                                ; preds = %12
  %17 = sub i64 %16, %14
  %18 = getelementptr inbounds nuw i8, ptr %5, i64 32
  %19 = getelementptr inbounds [1 x i8], ptr %18, i64 0, i64 %14
  %20 = tail call i64 @llvm.umin.i64(i64 %17, i64 range(i64 1, 0) %.02437)
  tail call void @llvm.memcpy.p0.p0.i64(ptr nonnull align 1 %19, ptr readonly align 1 %.02338, i64 %20, i1 false)
  %21 = load i64, ptr %13, align 8
  %22 = add i64 %21, %20
  store i64 %22, ptr %13, align 8
  %23 = add i64 %20, %.02239
  %24 = getelementptr inbounds i8, ptr %.02338, i64 %20
  %25 = sub i64 %.02437, %20
  %.not31 = icmp eq i64 %25, 0
  br i1 %.not31, label %.thread, label %.lr.ph, !llvm.loop !10

chunk_append.exit.thread:                         ; preds = %12, %6
  %26 = icmp eq i64 %.02239, 0
  %spec.select = select i1 %26, i32 81, i32 0
  %spec.select46 = select i1 %26, i64 -1, i64 %.02239
  br label %.thread

.thread:                                          ; preds = %chunk_append.exit, %chunk_append.exit.thread, %4, %6
  %.sink = phi i32 [ 27, %6 ], [ 0, %4 ], [ %spec.select, %chunk_append.exit.thread ], [ 0, %chunk_append.exit ]
  %.0 = phi i64 [ -1, %6 ], [ 0, %4 ], [ %spec.select46, %chunk_append.exit.thread ], [ %23, %chunk_append.exit ]
  store i32 %.sink, ptr %3, align 4
  ret i64 %.0
}